target datalayout = "e-m:e-p270:32:32-p271:32:32-p272:64:64-i64:64-i128:128-f80:128-n8:16:32:64-S128"
target triple = "x86_64-pc-linux-gnu"

%struct.cq_vtable = type { i32, i64, ptr, ptr, ptr, ptr, ptr, ptr, ptr }
%"struct.(anonymous namespace)::cq_poller_vtable" = type { i8, i8, ptr, ptr, ptr, ptr, ptr, ptr }
%struct.grpc_completion_queue = type <{ %"class.grpc_core::RefCount", [64 x i8], ptr, [64 x i8], ptr, [64 x i8], ptr, %struct.grpc_closure, i32, [4 x i8] }>
%"class.grpc_core::RefCount" = type { %"struct.std::atomic" }
%"struct.std::atomic" = type { %"struct.std::__atomic_base" }
%"struct.std::__atomic_base" = type { i64 }
%struct.grpc_closure = type { %union.anon, ptr, ptr, %union.anon.10 }
%union.anon = type { ptr }
%union.anon.10 = type { i64 }
%"class.grpc_core::DebugLocation" = type { i8 }

; Function Attrs: alwaysinline mustprogress nounwind uwtable
define linkonce_odr noundef i64 @_ZNSt13__atomic_baseIlE9fetch_subElSt12memory_order(ptr noundef nonnull align 8 dereferenceable(8) %0, i64 noundef %1, i32 noundef %2) #8 comdat align 2 {
  %4 = alloca ptr, align 8
  %5 = alloca i64, align 8
  %6 = alloca i32, align 4
  %7 = alloca i64, align 8
  %8 = alloca i64, align 8
  store ptr %0, ptr %4, align 8, !tbaa !56
  store i64 %1, ptr %5, align 8, !tbaa !58
  store i32 %2, ptr %6, align 4, !tbaa !59
  %9 = load ptr, ptr %4, align 8
  %10 = getelementptr inbounds nuw %"struct.std::__atomic_base", ptr %9, i32 0, i32 0
  %11 = load i32, ptr %6, align 4, !tbaa !59
  %12 = load i64, ptr %5, align 8, !tbaa !58
  store i64 %12, ptr %7, align 8, !tbaa !58
  switch i32 %11, label %13 [
    i32 1, label %16
    i32 2, label %16
    i32 3, label %19
    i32 4, label %22
    i32 5, label %25
  ]

13:                                               ; preds = %3
  %14 = load i64, ptr %7, align 8
  %15 = atomicrmw sub ptr %10, i64 %14 monotonic, align 8
  store i64 %15, ptr %8, align 8
  br label %28

16:                                               ; preds = %3, %3
  %17 = load i64, ptr %7, align 8
  %18 = atomicrmw sub ptr %10, i64 %17 acquire, align 8
  store i64 %18, ptr %8, align 8
  br label %28

19:                                               ; preds = %3
  %20 = load i64, ptr %7, align 8
  %21 = atomicrmw sub ptr %10, i64 %20 release, align 8
  store i64 %21, ptr %8, align 8
  br label %28

22:                                               ; preds = %3
  %23 = load i64, ptr %7, align 8
  %24 = atomicrmw sub ptr %10, i64 %23 acq_rel, align 8
  store i64 %24, ptr %8, align 8
  br label %28

25:                                               ; preds = %3
  %26 = load i64, ptr %7, align 8
  %27 = atomicrmw sub ptr %10, i64 %26 seq_cst, align 8
  store i64 %27, ptr %8, align 8
  br label %28

28:                                               ; preds = %25, %22, %19, %16, %13
  %29 = load i64, ptr %8, align 8, !tbaa !58
  ret i64 %29
}

; Function Attrs: mustprogress nounwind uwtable
define linkonce_odr noundef zeroext i1 @_ZN9grpc_core8RefCount5UnrefERKNS_13DebugLocationEPKc(ptr noundef nonnull align 8 dereferenceable(8) %0, ptr noundef nonnull align 1 dereferenceable(1) %1, ptr noundef %2) #4 comdat align 2 {
  %4 = alloca ptr, align 8
  %5 = alloca ptr, align 8
  %6 = alloca ptr, align 8
  %7 = alloca i64, align 8
  store ptr %0, ptr %4, align 8, !tbaa !103
  store ptr %1, ptr %5, align 8, !tbaa !113
  store ptr %2, ptr %6, align 8, !tbaa !61
  %8 = load ptr, ptr %4, align 8
  call void @llvm.lifetime.start.p0(i64 8, ptr %7) #3
  %9 = getelementptr inbounds nuw %"class.grpc_core::RefCount", ptr %8, i32 0, i32 0
  %10 = call noundef i64 @_ZNSt13__atomic_baseIlE9fetch_subElSt12memory_order(ptr noundef nonnull align 8 dereferenceable(8) %9, i64 noundef 1, i32 noundef 4) #3
  store i64 %10, ptr %7, align 8, !tbaa !58
  %11 = load i64, ptr %7, align 8, !tbaa !58
  %12 = icmp eq i64 %11, 1
  call void @llvm.lifetime.end.p0(i64 8, ptr %7) #3
  ret i1 %12
}

; Function Attrs: mustprogress nounwind uwtable
define linkonce_odr void @_ZN9grpc_core13DebugLocationC2Ev(ptr noundef nonnull align 1 dereferenceable(1) %0) unnamed_addr #4 comdat align 2 {
  %2 = alloca ptr, align 8
  store ptr %0, ptr %2, align 8, !tbaa !113
  ret void
}

; Function Attrs: mustprogress uwtable
define void @_Z22grpc_cq_internal_unrefP21grpc_completion_queue(ptr noundef %0) #6 {
  %2 = alloca ptr, align 8
  %3 = alloca %"class.grpc_core::DebugLocation", align 1
  %4 = alloca ptr, align 8
  store ptr %0, ptr %2, align 8, !tbaa !3
  call void @llvm.lifetime.start.p0(i64 1, ptr %3) #3
  call void @_ZN9grpc_core13DebugLocationC2Ev(ptr noundef nonnull align 1 dereferenceable(1) %3)
  call void @llvm.lifetime.start.p0(i64 8, ptr %4) #3
  store ptr null, ptr %4, align 8, !tbaa !61
  %5 = load ptr, ptr %2, align 8, !tbaa !3
  %6 = getelementptr inbounds nuw %struct.grpc_completion_queue, ptr %5, i32 0, i32 0
  %7 = load ptr, ptr %4, align 8, !tbaa !61
  %8 = call noundef zeroext i1 @_ZN9grpc_core8RefCount5UnrefERKNS_13DebugLocationEPKc(ptr noundef nonnull align 8 dereferenceable(8) %6, ptr noundef nonnull align 1 dereferenceable(1) %3, ptr noundef %7)
  %9 = zext i1 %8 to i64
  %10 = call i64 @llvm.expect.i64(i64 %9, i64 0)
  %11 = icmp ne i64 %10, 0
  br i1 %11, label %12, label %34

12:                                               ; preds = %1
  %13 = load ptr, ptr %2, align 8, !tbaa !3
  %14 = getelementptr inbounds nuw %struct.grpc_completion_queue, ptr %13, i32 0, i32 4
  %15 = load ptr, ptr %14, align 8, !tbaa !79
  %16 = getelementptr inbounds nuw %struct.cq_vtable, ptr %15, i32 0, i32 4
  %17 = load ptr, ptr %16, align 8, !tbaa !83
  %18 = load ptr, ptr %2, align 8, !tbaa !3
  %19 = getelementptr inbounds %struct.grpc_completion_queue, ptr %18, i64 1
  call void %17(ptr noundef %19)
  %20 = load ptr, ptr %2, align 8, !tbaa !3
  %21 = getelementptr inbounds nuw %struct.grpc_completion_queue, ptr %20, i32 0, i32 6
  %22 = load ptr, ptr %21, align 8, !tbaa !76
  %23 = getelementptr inbounds nuw %"struct.(anonymous namespace)::cq_poller_vtable", ptr %22, i32 0, i32 7
  %24 = load ptr, ptr %23, align 8, !tbaa !84
  %25 = load ptr, ptr %2, align 8, !tbaa !3
  %26 = getelementptr inbounds nuw %struct.grpc_completion_queue, ptr %25, i32 0, i32 4
  %27 = load ptr, ptr %26, align 8, !tbaa !79
  %28 = getelementptr inbounds nuw %struct.cq_vtable, ptr %27, i32 0, i32 1
  %29 = load i64, ptr %28, align 8, !tbaa !80
  %30 = load ptr, ptr %2, align 8, !tbaa !3
  %31 = getelementptr inbounds %struct.grpc_completion_queue, ptr %30, i64 1
  %32 = getelementptr inbounds nuw i8, ptr %31, i64 %29
  call void %24(ptr noundef %32)
  %33 = load ptr, ptr %2, align 8, !tbaa !3
  call void @gpr_free(ptr noundef %33)
  br label %34

34:                                               ; preds = %12, %1
  call void @llvm.lifetime.end.p0(i64 8, ptr %4) #3
  call void @llvm.lifetime.end.p0(i64 1, ptr %3) #3
  ret void
}

; Function Attrs: mustprogress uwtable
define internal void @_ZL24on_pollset_shutdown_donePvN4absl12lts_202407226StatusE(ptr noundef %0, ptr noundef %1) #6 {
  %3 = alloca ptr, align 8
  %4 = alloca ptr, align 8
  %5 = alloca ptr, align 8
  store ptr %0, ptr %3, align 8, !tbaa !20
  store ptr %1, ptr %4, align 8, !tbaa !109
  call void @llvm.lifetime.start.p0(i64 8, ptr %5) #3
  %6 = load ptr, ptr %3, align 8, !tbaa !20
  store ptr %6, ptr %5, align 8, !tbaa !3
  %7 = load ptr, ptr %5, align 8, !tbaa !3
  call void @_Z22grpc_cq_internal_unrefP21grpc_completion_queue(ptr noundef %7)
  call void @llvm.lifetime.end.p0(i64 8, ptr %5) #3
  ret void
}