; Function Attrs: mustprogress uwtable
define internal void @_ZL24on_pollset_shutdown_donePvN4absl12lts_202407226StatusE(ptr noundef %0, ptr readnone captures(none) %1) #8 {
  %3 = atomicrmw sub ptr %0, i64 1 acq_rel, align 8
  %4 = icmp eq i64 %3, 1
  br i1 %4, label %5, label %_Z22grpc_cq_internal_unrefP21grpc_completion_queue.exit, !prof !33

5:                                                ; preds = %2
  %6 = getelementptr inbounds nuw i8, ptr %0, i64 144
  %7 = load ptr, ptr %6, align 8, !tbaa !48
  %8 = getelementptr inbounds nuw i8, ptr %7, i64 32
  %9 = load ptr, ptr %8, align 8, !tbaa !49
  %10 = getelementptr inbounds nuw i8, ptr %0, i64 264
  tail call void %9(ptr noundef nonnull %10)
  %11 = getelementptr inbounds nuw i8, ptr %0, i64 216
  %12 = load ptr, ptr %11, align 8, !tbaa !52
  %13 = getelementptr inbounds nuw i8, ptr %12, i64 48
  %14 = load ptr, ptr %13, align 8, !tbaa !53
  %15 = load ptr, ptr %6, align 8, !tbaa !48
  %16 = getelementptr inbounds nuw i8, ptr %15, i64 8
  %17 = load i64, ptr %16, align 8, !tbaa !55
  %18 = getelementptr inbounds nuw i8, ptr %10, i64 %17
  tail call void %14(ptr noundef nonnull %18)
  tail call void @gpr_free(ptr noundef nonnull %0)
  br label %_Z22grpc_cq_internal_unrefP21grpc_completion_queue.exit

_Z22grpc_cq_internal_unrefP21grpc_completion_queue.exit: ; preds = %2, %5
  ret void
}